target datalayout = "e-m:e-p270:32:32-p271:32:32-p272:64:64-i64:64-i128:128-f80:128-n8:16:32:64-S128"
target triple = "x86_64-pc-linux-gnu"

%struct.mbedtls_ssl_transform = type { i64, i64, i64, i64, i64, [16 x i8], [16 x i8], %struct.mbedtls_md_context_t, %struct.mbedtls_md_context_t, i32, i32, %struct.mbedtls_cipher_context_t, %struct.mbedtls_cipher_context_t, i8, i8, [32 x i8], [32 x i8], [64 x i8] }
%struct.mbedtls_md_context_t = type { ptr, ptr, ptr }
%struct.mbedtls_cipher_context_t = type { ptr, i32, i32, ptr, ptr, [16 x i8], i64, [16 x i8], i64, ptr, ptr }
%struct.mbedtls_cipher_info_t = type { ptr, i32 }

; Function Attrs: nounwind uwtable
define internal i32 @mbedtls_ssl_get_actual_mode(i32 noundef %0, i32 noundef %1) #0 {
  %3 = alloca i32, align 4
  %4 = alloca i32, align 4
  %5 = alloca i32, align 4
  store i32 %0, ptr %4, align 4, !tbaa !10
  store i32 %1, ptr %5, align 4, !tbaa !10
  %6 = load i32, ptr %5, align 4, !tbaa !10
  %7 = icmp eq i32 %6, 1
  br i1 %7, label %8, label %12

8:                                                ; preds = %2
  %9 = load i32, ptr %4, align 4, !tbaa !10
  %10 = icmp eq i32 %9, 1
  br i1 %10, label %11, label %12

11:                                               ; preds = %8
  store i32 2, ptr %3, align 4
  br label %14

12:                                               ; preds = %8, %2
  %13 = load i32, ptr %4, align 4, !tbaa !10
  store i32 %13, ptr %3, align 4
  br label %14

14:                                               ; preds = %12, %11
  %15 = load i32, ptr %3, align 4
  ret i32 %15
}

; Function Attrs: nounwind uwtable
define internal i32 @mbedtls_ssl_get_base_mode(i32 noundef %0) #0 {
  %2 = alloca i32, align 4
  %3 = alloca i32, align 4
  store i32 %0, ptr %3, align 4, !tbaa !10
  %4 = load i32, ptr %3, align 4, !tbaa !10
  %5 = icmp eq i32 %4, 2
  br i1 %5, label %6, label %7

6:                                                ; preds = %1
  store i32 1, ptr %2, align 4
  br label %18

7:                                                ; preds = %1
  %8 = load i32, ptr %3, align 4, !tbaa !10
  %9 = icmp eq i32 %8, 6
  br i1 %9, label %16, label %10

10:                                               ; preds = %7
  %11 = load i32, ptr %3, align 4, !tbaa !10
  %12 = icmp eq i32 %11, 8
  br i1 %12, label %16, label %13

13:                                               ; preds = %10
  %14 = load i32, ptr %3, align 4, !tbaa !10
  %15 = icmp eq i32 %14, 11
  br i1 %15, label %16, label %17

16:                                               ; preds = %13, %10, %7
  store i32 3, ptr %2, align 4
  br label %18

17:                                               ; preds = %13
  store i32 0, ptr %2, align 4
  br label %18

18:                                               ; preds = %17, %16, %6
  %19 = load i32, ptr %2, align 4
  ret i32 %19
}

; Function Attrs: inlinehint nounwind uwtable
define internal i32 @mbedtls_cipher_get_cipher_mode(ptr noundef %0) #3 {
  %2 = alloca i32, align 4
  %3 = alloca ptr, align 8
  store ptr %0, ptr %3, align 8, !tbaa !214
  %4 = load ptr, ptr %3, align 8, !tbaa !214
  %5 = getelementptr inbounds nuw %struct.mbedtls_cipher_context_t, ptr %4, i32 0, i32 0
  %6 = load ptr, ptr %5, align 8, !tbaa !216
  %7 = icmp eq ptr %6, null
  br i1 %7, label %8, label %9

8:                                                ; preds = %1
  store i32 0, ptr %2, align 4
  br label %17

9:                                                ; preds = %1
  %10 = load ptr, ptr %3, align 8, !tbaa !214
  %11 = getelementptr inbounds nuw %struct.mbedtls_cipher_context_t, ptr %10, i32 0, i32 0
  %12 = load ptr, ptr %11, align 8, !tbaa !216
  %13 = getelementptr inbounds nuw %struct.mbedtls_cipher_info_t, ptr %12, i32 0, i32 1
  %14 = load i32, ptr %13, align 8
  %15 = lshr i32 %14, 12
  %16 = and i32 %15, 15
  store i32 %16, ptr %2, align 4
  br label %17

17:                                               ; preds = %9, %8
  %18 = load i32, ptr %2, align 4
  ret i32 %18
}

; Function Attrs: nounwind uwtable
define hidden i32 @mbedtls_ssl_get_mode_from_transform(ptr noundef %0) #0 {
  %2 = alloca ptr, align 8
  %3 = alloca i32, align 4
  %4 = alloca i32, align 4
  store ptr %0, ptr %2, align 8, !tbaa !88
  call void @llvm.lifetime.start.p0(i64 4, ptr %3) #11
  %5 = load ptr, ptr %2, align 8, !tbaa !88
  %6 = getelementptr inbounds nuw %struct.mbedtls_ssl_transform, ptr %5, i32 0, i32 11
  %7 = call i32 @mbedtls_cipher_get_cipher_mode(ptr noundef %6)
  %8 = call i32 @mbedtls_ssl_get_base_mode(i32 noundef %7)
  store i32 %8, ptr %3, align 4, !tbaa !10
  call void @llvm.lifetime.start.p0(i64 4, ptr %4) #11
  store i32 0, ptr %4, align 4, !tbaa !10
  %9 = load ptr, ptr %2, align 8, !tbaa !88
  %10 = getelementptr inbounds nuw %struct.mbedtls_ssl_transform, ptr %9, i32 0, i32 9
  %11 = load i32, ptr %10, align 8, !tbaa !213
  store i32 %11, ptr %4, align 4, !tbaa !10
  %12 = load i32, ptr %3, align 4, !tbaa !10
  %13 = load i32, ptr %4, align 4, !tbaa !10
  %14 = call i32 @mbedtls_ssl_get_actual_mode(i32 noundef %12, i32 noundef %13)
  call void @llvm.lifetime.end.p0(i64 4, ptr %4) #11
  call void @llvm.lifetime.end.p0(i64 4, ptr %3) #11
  ret i32 %14
}