; Function Attrs: mustprogress nofree norecurse nosync nounwind willreturn memory(read, inaccessiblemem: none) uwtable
define hidden range(i32 0, 4) i32 @mbedtls_ssl_get_mode_from_transform(ptr noundef readonly captures(none) %0) local_unnamed_addr #13 {
  %2 = getelementptr inbounds nuw i8, ptr %0, i64 128
  %.val = load ptr, ptr %2, align 8, !tbaa !185
  %3 = icmp eq ptr %.val, null
  br i1 %3, label %mbedtls_cipher_get_cipher_mode.exit.thread, label %mbedtls_cipher_get_cipher_mode.exit

mbedtls_cipher_get_cipher_mode.exit:              ; preds = %1
  %4 = getelementptr inbounds nuw i8, ptr %.val, i64 8
  %5 = load i32, ptr %4, align 8
  %6 = lshr i32 %5, 12
  %7 = and i32 %6, 15
  switch i32 %7, label %mbedtls_cipher_get_cipher_mode.exit.thread [
    i32 2, label %mbedtls_ssl_get_base_mode.exit
    i32 11, label %.fold.split.i
    i32 8, label %.fold.split.i
    i32 6, label %.fold.split.i
  ]

mbedtls_cipher_get_cipher_mode.exit.thread:       ; preds = %1, %mbedtls_cipher_get_cipher_mode.exit
  br label %mbedtls_ssl_get_base_mode.exit

.fold.split.i:                                    ; preds = %mbedtls_cipher_get_cipher_mode.exit, %mbedtls_cipher_get_cipher_mode.exit, %mbedtls_cipher_get_cipher_mode.exit
  br label %mbedtls_ssl_get_base_mode.exit

mbedtls_ssl_get_base_mode.exit:                   ; preds = %mbedtls_cipher_get_cipher_mode.exit, %mbedtls_cipher_get_cipher_mode.exit.thread, %.fold.split.i
  %8 = phi i1 [ false, %mbedtls_cipher_get_cipher_mode.exit.thread ], [ true, %mbedtls_cipher_get_cipher_mode.exit ], [ false, %.fold.split.i ]
  %.0.i3 = phi i32 [ 0, %mbedtls_cipher_get_cipher_mode.exit.thread ], [ 1, %mbedtls_cipher_get_cipher_mode.exit ], [ 3, %.fold.split.i ]
  %9 = getelementptr inbounds nuw i8, ptr %0, i64 120
  %10 = load i32, ptr %9, align 8, !tbaa !186
  %11 = icmp eq i32 %10, 1
  %or.cond.i = and i1 %8, %11
  %..i = select i1 %or.cond.i, i32 2, i32 %.0.i3
  ret i32 %..i
}